target datalayout = "e-m:e-p270:32:32-p271:32:32-p272:64:64-i64:64-i128:128-f80:128-n8:16:32:64-S128"
target triple = "x86_64-unknown-linux-gnu"

%struct.QTailQLink = type { ptr, ptr }
%struct.BlockDriverState = type { i32, i8, i8, i8, i8, i8, ptr, ptr, ptr, %struct.anon.0, i8, [4096 x i8], [4096 x i8], [4096 x i8], [16 x i8], ptr, [4096 x i8], %struct.BlockLimits, i32, i32, i32, i32, [32 x i8], %union.anon, %union.anon.1, %union.anon.2, i32, [16 x %struct.anon.3], ptr, %struct.anon.4, ptr, ptr, %struct.anon.5, ptr, ptr, i32, ptr, i64, i64, %struct.QemuMutex, %struct.anon.6, %struct.Stat64, i32, i32, i32, i32, i32, i32, %struct.QemuMutex, %struct.anon.7, %struct.CoQueue, i8, i32, i8, %struct.CoMutex, ptr, ptr }
%struct.anon.0 = type { ptr }
%struct.BlockLimits = type { i32, i64, i32, i64, i32, i32, i32, i64, i32, i64, i64, i32, i8, i32, i32, i32, i32, i32, i32, i32 }
%union.anon = type { %struct.QTailQLink }
%union.anon.1 = type { %struct.QTailQLink }
%union.anon.2 = type { %struct.QTailQLink }
%struct.anon.3 = type { ptr }
%struct.anon.4 = type { ptr }
%struct.anon.5 = type { ptr }
%struct.anon.6 = type { ptr }
%struct.Stat64 = type { i64 }
%struct.QemuMutex = type { %union.pthread_mutex_t, i8 }
%union.pthread_mutex_t = type { %struct.__pthread_mutex_s }
%struct.__pthread_mutex_s = type { i32, i32, i32, i32, i32, i16, i16, %struct.__pthread_internal_list }
%struct.__pthread_internal_list = type { ptr, ptr }
%struct.anon.7 = type { ptr }
%struct.CoQueue = type { %struct.anon.8 }
%struct.anon.8 = type { ptr, ptr }
%struct.CoMutex = type { i32, ptr, %struct.anon.9, %struct.anon.9, i32, i32, ptr }
%struct.anon.9 = type { ptr }
%struct.BDRVQuorumState = type { ptr, i32, i32, i32, i8, i8, i32 }
%struct.BdrvChild = type { ptr, ptr, ptr, i32, ptr, i64, i64, i8, i8, %struct.anon.10, %struct.anon.11 }
%struct.anon.10 = type { ptr, ptr }
%struct.anon.11 = type { ptr, ptr }
%struct.QuorumAIOCB = type { ptr, ptr, i64, i64, i32, ptr, ptr, i32, i32, i32, %struct.QuorumVotes, i8, i32, i32 }
%struct.QuorumVotes = type { %struct.anon.15, ptr }
%struct.anon.15 = type { ptr }
%struct.QuorumChildRequest = type { ptr, %struct.QEMUIOVector, ptr, i32, ptr }
%struct.QEMUIOVector = type { ptr, i32, %union.anon.16 }
%union.anon.16 = type { %struct.anon.17 }
%struct.anon.17 = type { i32, %struct.iovec }
%struct.iovec = type { ptr, i64 }

; Function Attrs: nounwind sspstrong uwtable
define internal void @quorum_report_bad(i32 noundef %type, i64 noundef %offset, i64 noundef %bytes, ptr noundef %node_name, i32 noundef %ret) #0 {
entry:
  %type.addr = alloca i32, align 4
  %offset.addr = alloca i64, align 8
  %bytes.addr = alloca i64, align 8
  %node_name.addr = alloca ptr, align 8
  %ret.addr = alloca i32, align 4
  %msg = alloca ptr, align 8
  %start_sector = alloca i64, align 8
  %end_sector = alloca i64, align 8
  store i32 %type, ptr %type.addr, align 4
  store i64 %offset, ptr %offset.addr, align 8
  store i64 %bytes, ptr %bytes.addr, align 8
  store ptr %node_name, ptr %node_name.addr, align 8
  store i32 %ret, ptr %ret.addr, align 4
  store ptr null, ptr %msg, align 8
  %0 = load i64, ptr %offset.addr, align 8
  %div = udiv i64 %0, 512
  store i64 %div, ptr %start_sector, align 8
  %1 = load i64, ptr %offset.addr, align 8
  %2 = load i64, ptr %bytes.addr, align 8
  %add = add i64 %1, %2
  %add1 = add i64 %add, 512
  %sub = sub i64 %add1, 1
  %div2 = udiv i64 %sub, 512
  store i64 %div2, ptr %end_sector, align 8
  %3 = load i32, ptr %ret.addr, align 4
  %cmp = icmp slt i32 %3, 0
  br i1 %cmp, label %if.then, label %if.end

if.then:                                          ; preds = %entry
  %4 = load i32, ptr %ret.addr, align 4
  %sub3 = sub i32 0, %4
  %call = call ptr @strerror(i32 noundef %sub3) #8
  store ptr %call, ptr %msg, align 8
  br label %if.end

if.end:                                           ; preds = %if.then, %entry
  %5 = load i32, ptr %type.addr, align 4
  %6 = load ptr, ptr %msg, align 8
  %7 = load ptr, ptr %node_name.addr, align 8
  %8 = load i64, ptr %start_sector, align 8
  %9 = load i64, ptr %end_sector, align 8
  %10 = load i64, ptr %start_sector, align 8
  %sub4 = sub i64 %9, %10
  call void @qapi_event_send_quorum_report_bad(i32 noundef %5, ptr noundef %6, ptr noundef %7, i64 noundef %8, i64 noundef %sub4)
  ret void
}

; Function Attrs: nounwind sspstrong uwtable
define internal void @quorum_report_bad_acb(ptr noundef %sacb, i32 noundef %ret) #0 {
entry:
  %sacb.addr = alloca ptr, align 8
  %ret.addr = alloca i32, align 4
  %acb = alloca ptr, align 8
  %type = alloca i32, align 4
  store ptr %sacb, ptr %sacb.addr, align 8
  store i32 %ret, ptr %ret.addr, align 4
  %0 = load ptr, ptr %sacb.addr, align 8
  %parent = getelementptr inbounds %struct.QuorumChildRequest, ptr %0, i32 0, i32 4
  %1 = load ptr, ptr %parent, align 8
  store ptr %1, ptr %acb, align 8
  %2 = load ptr, ptr %acb, align 8
  %is_read = getelementptr inbounds %struct.QuorumAIOCB, ptr %2, i32 0, i32 11
  %3 = load i8, ptr %is_read, align 8
  %tobool = trunc i8 %3 to i1
  %cond = select i1 %tobool, i32 0, i32 1
  store i32 %cond, ptr %type, align 4
  %4 = load i32, ptr %type, align 4
  %5 = load ptr, ptr %acb, align 8
  %offset = getelementptr inbounds %struct.QuorumAIOCB, ptr %5, i32 0, i32 2
  %6 = load i64, ptr %offset, align 8
  %7 = load ptr, ptr %acb, align 8
  %bytes = getelementptr inbounds %struct.QuorumAIOCB, ptr %7, i32 0, i32 3
  %8 = load i64, ptr %bytes, align 8
  %9 = load ptr, ptr %sacb.addr, align 8
  %bs = getelementptr inbounds %struct.QuorumChildRequest, ptr %9, i32 0, i32 0
  %10 = load ptr, ptr %bs, align 8
  %node_name = getelementptr inbounds %struct.BlockDriverState, ptr %10, i32 0, i32 22
  %arraydecay = getelementptr inbounds [32 x i8], ptr %node_name, i64 0, i64 0
  %11 = load i32, ptr %ret.addr, align 4
  call void @quorum_report_bad(i32 noundef %4, i64 noundef %6, i64 noundef %8, ptr noundef %arraydecay, i32 noundef %11)
  ret void
}

; Function Attrs: nounwind sspstrong uwtable
define internal i32 @read_fifo_child(ptr noundef %acb) #0 {
entry:
  %acb.addr = alloca ptr, align 8
  %s = alloca ptr, align 8
  %n = alloca i32, align 4
  %ret = alloca i32, align 4
  store ptr %acb, ptr %acb.addr, align 8
  %0 = load ptr, ptr %acb.addr, align 8
  %bs = getelementptr inbounds %struct.QuorumAIOCB, ptr %0, i32 0, i32 0
  %1 = load ptr, ptr %bs, align 8
  %opaque = getelementptr inbounds %struct.BlockDriverState, ptr %1, i32 0, i32 7
  %2 = load ptr, ptr %opaque, align 8
  store ptr %2, ptr %s, align 8
  br label %do.body

do.body:                                          ; preds = %land.end, %entry
  %3 = load ptr, ptr %acb.addr, align 8
  %children_read = getelementptr inbounds %struct.QuorumAIOCB, ptr %3, i32 0, i32 13
  %4 = load i32, ptr %children_read, align 8
  %inc = add i32 %4, 1
  store i32 %inc, ptr %children_read, align 8
  store i32 %4, ptr %n, align 4
  %5 = load ptr, ptr %s, align 8
  %children = getelementptr inbounds %struct.BDRVQuorumState, ptr %5, i32 0, i32 0
  %6 = load ptr, ptr %children, align 8
  %7 = load i32, ptr %n, align 4
  %idxprom = sext i32 %7 to i64
  %arrayidx = getelementptr ptr, ptr %6, i64 %idxprom
  %8 = load ptr, ptr %arrayidx, align 8
  %bs1 = getelementptr inbounds %struct.BdrvChild, ptr %8, i32 0, i32 0
  %9 = load ptr, ptr %bs1, align 8
  %10 = load ptr, ptr %acb.addr, align 8
  %qcrs = getelementptr inbounds %struct.QuorumAIOCB, ptr %10, i32 0, i32 6
  %11 = load ptr, ptr %qcrs, align 8
  %12 = load i32, ptr %n, align 4
  %idxprom2 = sext i32 %12 to i64
  %arrayidx3 = getelementptr %struct.QuorumChildRequest, ptr %11, i64 %idxprom2
  %bs4 = getelementptr inbounds %struct.QuorumChildRequest, ptr %arrayidx3, i32 0, i32 0
  store ptr %9, ptr %bs4, align 8
  %13 = load ptr, ptr %s, align 8
  %children5 = getelementptr inbounds %struct.BDRVQuorumState, ptr %13, i32 0, i32 0
  %14 = load ptr, ptr %children5, align 8
  %15 = load i32, ptr %n, align 4
  %idxprom6 = sext i32 %15 to i64
  %arrayidx7 = getelementptr ptr, ptr %14, i64 %idxprom6
  %16 = load ptr, ptr %arrayidx7, align 8
  %17 = load ptr, ptr %acb.addr, align 8
  %offset = getelementptr inbounds %struct.QuorumAIOCB, ptr %17, i32 0, i32 2
  %18 = load i64, ptr %offset, align 8
  %19 = load ptr, ptr %acb.addr, align 8
  %bytes = getelementptr inbounds %struct.QuorumAIOCB, ptr %19, i32 0, i32 3
  %20 = load i64, ptr %bytes, align 8
  %21 = load ptr, ptr %acb.addr, align 8
  %qiov = getelementptr inbounds %struct.QuorumAIOCB, ptr %21, i32 0, i32 5
  %22 = load ptr, ptr %qiov, align 8
  %call = call i32 @bdrv_co_preadv(ptr noundef %16, i64 noundef %18, i64 noundef %20, ptr noundef %22, i32 noundef 0)
  store i32 %call, ptr %ret, align 4
  %23 = load i32, ptr %ret, align 4
  %cmp = icmp slt i32 %23, 0
  br i1 %cmp, label %if.then, label %if.end

if.then:                                          ; preds = %do.body
  %24 = load ptr, ptr %acb.addr, align 8
  %qcrs8 = getelementptr inbounds %struct.QuorumAIOCB, ptr %24, i32 0, i32 6
  %25 = load ptr, ptr %qcrs8, align 8
  %26 = load i32, ptr %n, align 4
  %idxprom9 = sext i32 %26 to i64
  %arrayidx10 = getelementptr %struct.QuorumChildRequest, ptr %25, i64 %idxprom9
  %27 = load i32, ptr %ret, align 4
  call void @quorum_report_bad_acb(ptr noundef %arrayidx10, i32 noundef %27)
  br label %if.end

if.end:                                           ; preds = %if.then, %do.body
  br label %do.cond

do.cond:                                          ; preds = %if.end
  %28 = load i32, ptr %ret, align 4
  %cmp11 = icmp slt i32 %28, 0
  br i1 %cmp11, label %land.rhs, label %land.end

land.rhs:                                         ; preds = %do.cond
  %29 = load ptr, ptr %acb.addr, align 8
  %children_read12 = getelementptr inbounds %struct.QuorumAIOCB, ptr %29, i32 0, i32 13
  %30 = load i32, ptr %children_read12, align 8
  %31 = load ptr, ptr %s, align 8
  %num_children = getelementptr inbounds %struct.BDRVQuorumState, ptr %31, i32 0, i32 1
  %32 = load i32, ptr %num_children, align 8
  %cmp13 = icmp slt i32 %30, %32
  br label %land.end

land.end:                                         ; preds = %land.rhs, %do.cond
  %33 = phi i1 [ false, %do.cond ], [ %cmp13, %land.rhs ]
  br i1 %33, label %do.body, label %do.end, !llvm.loop !24

do.end:                                           ; preds = %land.end
  %34 = load i32, ptr %ret, align 4
  ret i32 %34
}