; Function Attrs: nounwind sspstrong uwtable
define internal i32 @read_fifo_child(ptr noundef captures(none) %acb) #0 {
entry:
  %0 = load ptr, ptr %acb, align 8
  %opaque = getelementptr inbounds nuw i8, ptr %0, i64 24
  %1 = load ptr, ptr %opaque, align 8
  %children_read = getelementptr inbounds nuw i8, ptr %acb, i64 96
  %qcrs = getelementptr inbounds nuw i8, ptr %acb, i64 48
  %offset = getelementptr inbounds nuw i8, ptr %acb, i64 16
  %bytes = getelementptr inbounds nuw i8, ptr %acb, i64 24
  %qiov = getelementptr inbounds nuw i8, ptr %acb, i64 40
  %num_children = getelementptr inbounds nuw i8, ptr %1, i64 8
  %.pre = load i32, ptr %children_read, align 8
  br label %do.body

do.body:                                          ; preds = %quorum_report_bad_acb.exit, %entry
  %2 = phi i32 [ %19, %quorum_report_bad_acb.exit ], [ %.pre, %entry ]
  %inc = add i32 %2, 1
  store i32 %inc, ptr %children_read, align 8
  %3 = load ptr, ptr %1, align 8
  %idxprom = sext i32 %2 to i64
  %arrayidx = getelementptr ptr, ptr %3, i64 %idxprom
  %4 = load ptr, ptr %arrayidx, align 8
  %5 = load ptr, ptr %4, align 8
  %6 = load ptr, ptr %qcrs, align 8
  %arrayidx3 = getelementptr %struct.QuorumChildRequest, ptr %6, i64 %idxprom
  store ptr %5, ptr %arrayidx3, align 8
  %7 = load ptr, ptr %1, align 8
  %arrayidx7 = getelementptr ptr, ptr %7, i64 %idxprom
  %8 = load ptr, ptr %arrayidx7, align 8
  %9 = load i64, ptr %offset, align 8
  %10 = load i64, ptr %bytes, align 8
  %11 = load ptr, ptr %qiov, align 8
  %call = tail call i32 @bdrv_co_preadv(ptr noundef %8, i64 noundef %9, i64 noundef %10, ptr noundef %11, i32 noundef 0) #17
  %cmp = icmp slt i32 %call, 0
  br i1 %cmp, label %quorum_report_bad_acb.exit, label %do.end

quorum_report_bad_acb.exit:                       ; preds = %do.body
  %12 = load ptr, ptr %qcrs, align 8
  %arrayidx10 = getelementptr %struct.QuorumChildRequest, ptr %12, i64 %idxprom
  %arrayidx10.val = load ptr, ptr %arrayidx10, align 8
  %13 = getelementptr i8, ptr %arrayidx10, i64 64
  %arrayidx10.val16 = load ptr, ptr %13, align 8
  %is_read.i = getelementptr inbounds nuw i8, ptr %arrayidx10.val16, i64 88
  %14 = load i8, ptr %is_read.i, align 8
  %offset.i = getelementptr inbounds nuw i8, ptr %arrayidx10.val16, i64 16
  %15 = load i64, ptr %offset.i, align 8
  %bytes.i = getelementptr inbounds nuw i8, ptr %arrayidx10.val16, i64 24
  %16 = load i64, ptr %bytes.i, align 8
  %sub3.i.i = sub i32 0, %call
  %call.i.i = tail call ptr @strerror(i32 noundef %sub3.i.i) #17
  %node_name.i = getelementptr inbounds nuw i8, ptr %arrayidx10.val, i64 16600
  %17 = and i8 %14, 1
  %18 = xor i8 %17, 1
  %cond.i = zext nneg i8 %18 to i32
  %add.i.i = add i64 %15, 511
  %sub.i.i = add i64 %add.i.i, %16
  %div25.i.i = lshr i64 %sub.i.i, 9
  %div4.i.i = lshr i64 %15, 9
  %sub4.i.i = sub nsw i64 %div25.i.i, %div4.i.i
  tail call void @qapi_event_send_quorum_report_bad(i32 noundef range(i32 0, 3) %cond.i, ptr noundef %call.i.i, ptr noundef nonnull %node_name.i, i64 noundef %div4.i.i, i64 noundef %sub4.i.i) #17
  %19 = load i32, ptr %children_read, align 8
  %20 = load i32, ptr %num_children, align 8
  %cmp13 = icmp slt i32 %19, %20
  br i1 %cmp13, label %do.body, label %do.end, !llvm.loop !28

do.end:                                           ; preds = %do.body, %quorum_report_bad_acb.exit
  ret i32 %call
}